; Function Attrs: mustprogress nounwind uwtable
define dso_local { ptr, i64 } @_ZNKSt3__14__fs10filesystem4path15__relative_pathEv(ptr noundef nonnull align 8 dereferenceable(24) %0) local_unnamed_addr #2 align 2 {
  %2 = alloca %"struct.std::__1::__fs::filesystem::parser::PathParser", align 8
  call void @llvm.lifetime.start.p0(i64 40, ptr nonnull %2) #19
  %3 = load i8, ptr %0, align 8
  %4 = and i8 %3, 1
  %.not.i.i.i = icmp eq i8 %4, 0
  %5 = getelementptr inbounds nuw i8, ptr %0, i64 16
  %6 = load ptr, ptr %5, align 8
  %7 = getelementptr inbounds nuw i8, ptr %0, i64 1
  %8 = select i1 %.not.i.i.i, ptr %7, ptr %6
  %9 = getelementptr inbounds nuw i8, ptr %0, i64 8
  %10 = load i64, ptr %9, align 8
  %11 = lshr i8 %3, 1
  %12 = zext nneg i8 %11 to i64
  %13 = select i1 %.not.i.i.i, i64 %12, i64 %10
  store ptr %8, ptr %2, align 8, !tbaa !13, !alias.scope !33
  %.sroa.2.0..sroa_idx.i.i = getelementptr inbounds nuw i8, ptr %2, i64 8
  store i64 %13, ptr %.sroa.2.0..sroa_idx.i.i, align 8, !tbaa !19, !alias.scope !33
  %14 = getelementptr inbounds nuw i8, ptr %2, i64 16
  call void @llvm.memset.p0.i64(ptr noundef nonnull align 8 dereferenceable(16) %14, i8 0, i64 16, i1 false), !alias.scope !33
  %15 = getelementptr inbounds nuw i8, ptr %2, i64 32
  store i8 1, ptr %15, align 8, !tbaa !21, !alias.scope !33
  call void @_ZNSt3__14__fs10filesystem6parser10PathParser9incrementB8ne210000Ev(ptr noundef nonnull align 8 dereferenceable(33) %2) #19
  %16 = load i8, ptr %15, align 8, !tbaa !21
  %17 = icmp ult i8 %16, 4
  br i1 %17, label %.lr.ph.i, label %_ZNSt3__14__fs10filesystemL14ConsumeRootDirEPNS1_6parser10PathParserE.exit

.lr.ph.i:                                         ; preds = %1, %.lr.ph.i
  call void @_ZNSt3__14__fs10filesystem6parser10PathParser9incrementB8ne210000Ev(ptr noundef nonnull align 8 dereferenceable(33) %2) #19
  %18 = load i8, ptr %15, align 8, !tbaa !21
  %19 = icmp ult i8 %18, 4
  br i1 %19, label %.lr.ph.i, label %_ZNSt3__14__fs10filesystemL14ConsumeRootDirEPNS1_6parser10PathParserE.exit, !llvm.loop !36

_ZNSt3__14__fs10filesystemL14ConsumeRootDirEPNS1_6parser10PathParserE.exit: ; preds = %.lr.ph.i, %1
  %.lcssa.i = phi i8 [ %16, %1 ], [ %18, %.lr.ph.i ]
  %20 = icmp eq i8 %.lcssa.i, 6
  br i1 %20, label %36, label %21

21:                                               ; preds = %_ZNSt3__14__fs10filesystemL14ConsumeRootDirEPNS1_6parser10PathParserE.exit
  %22 = load ptr, ptr %14, align 8, !tbaa !28
  %23 = load i8, ptr %0, align 8
  %24 = and i8 %23, 1
  %.not.i.i.i1 = icmp eq i8 %24, 0
  %25 = load ptr, ptr %5, align 8
  %26 = select i1 %.not.i.i.i1, ptr %7, ptr %25
  %27 = load i64, ptr %9, align 8
  %28 = lshr i8 %23, 1
  %29 = zext nneg i8 %28 to i64
  %30 = select i1 %.not.i.i.i1, i64 %29, i64 %27
  %31 = getelementptr inbounds nuw i8, ptr %26, i64 %30
  %32 = getelementptr inbounds i8, ptr %31, i64 -1
  %33 = ptrtoint ptr %32 to i64
  %34 = ptrtoint ptr %22 to i64
  %reass.sub = sub i64 %33, %34
  %35 = add i64 %reass.sub, 1
  br label %36

36:                                               ; preds = %_ZNSt3__14__fs10filesystemL14ConsumeRootDirEPNS1_6parser10PathParserE.exit, %21
  %.sroa.0.0 = phi ptr [ %22, %21 ], [ null, %_ZNSt3__14__fs10filesystemL14ConsumeRootDirEPNS1_6parser10PathParserE.exit ]
  %.sroa.3.0 = phi i64 [ %35, %21 ], [ 0, %_ZNSt3__14__fs10filesystemL14ConsumeRootDirEPNS1_6parser10PathParserE.exit ]
  call void @llvm.lifetime.end.p0(i64 40, ptr nonnull %2) #19
  %.fca.0.insert = insertvalue { ptr, i64 } poison, ptr %.sroa.0.0, 0
  %.fca.1.insert = insertvalue { ptr, i64 } %.fca.0.insert, i64 %.sroa.3.0, 1
  ret { ptr, i64 } %.fca.1.insert
}